; Function Attrs: mustprogress nounwind uwtable
define void @ImfDeleteHeader(ptr noundef %0) local_unnamed_addr #12 {
  %2 = icmp eq ptr %0, null
  br i1 %2, label %4, label %3

3:                                                ; preds = %1
  tail call void @_ZN7Imf_3_46HeaderD1Ev(ptr noundef nonnull align 8 dereferenceable(49) %0) #24
  tail call void @_ZdlPvm(ptr noundef nonnull %0, i64 noundef 56) #25
  br label %4

4:                                                ; preds = %3, %1
  ret void
}